target datalayout = "e-m:e-p270:32:32-p271:32:32-p272:64:64-i64:64-i128:128-f80:128-n8:16:32:64-S128"
target triple = "x86_64-pc-linux-gnu"

%struct.jpeg_decompress_struct = type { ptr, ptr, ptr, ptr, i32, i32, ptr, i32, i32, i32, i32, i32, i32, i32, double, i32, i32, i32, i32, i32, i32, i32, i32, i32, i32, i32, i32, i32, i32, i32, i32, i32, i32, ptr, i32, i32, i32, i32, i32, ptr, [4 x ptr], [4 x ptr], [4 x ptr], i32, ptr, i32, i32, [16 x i8], [16 x i8], [16 x i8], i32, i32, i8, i8, i8, i16, i16, i32, i8, i32, ptr, i32, i32, i32, i32, ptr, i32, [4 x ptr], i32, i32, i32, [10 x i32], i32, i32, i32, i32, i32, ptr, ptr, ptr, ptr, ptr, ptr, ptr, ptr, ptr, ptr, ptr }
%struct.tga_dest_struct = type { %struct.djpeg_dest_struct, ptr, i32 }
%struct.djpeg_dest_struct = type { ptr, ptr, ptr, ptr, ptr, ptr, ptr, ptr, i32 }

; Function Attrs: nounwind uwtable
define internal void @put_pixel_rows(ptr noundef %0, ptr noundef %1, i32 noundef %2) #0 {
  %4 = alloca ptr, align 8
  %5 = alloca ptr, align 8
  %6 = alloca i32, align 4
  %7 = alloca ptr, align 8
  %8 = alloca ptr, align 8
  %9 = alloca ptr, align 8
  %10 = alloca i32, align 4
  store ptr %0, ptr %4, align 8, !tbaa !4
  store ptr %1, ptr %5, align 8, !tbaa !55
  store i32 %2, ptr %6, align 4, !tbaa !61
  call void @llvm.lifetime.start.p0(i64 8, ptr %7) #6
  %11 = load ptr, ptr %5, align 8, !tbaa !55
  store ptr %11, ptr %7, align 8, !tbaa !42
  call void @llvm.lifetime.start.p0(i64 8, ptr %8) #6
  call void @llvm.lifetime.start.p0(i64 8, ptr %9) #6
  call void @llvm.lifetime.start.p0(i64 4, ptr %10) #6
  %12 = load ptr, ptr %7, align 8, !tbaa !42
  %13 = getelementptr inbounds nuw %struct.tga_dest_struct, ptr %12, i32 0, i32 0
  %14 = getelementptr inbounds nuw %struct.djpeg_dest_struct, ptr %13, i32 0, i32 5
  %15 = load ptr, ptr %14, align 8, !tbaa !53
  %16 = getelementptr inbounds ptr, ptr %15, i64 0
  %17 = load ptr, ptr %16, align 8, !tbaa !65
  store ptr %17, ptr %8, align 8, !tbaa !65
  %18 = load ptr, ptr %7, align 8, !tbaa !42
  %19 = getelementptr inbounds nuw %struct.tga_dest_struct, ptr %18, i32 0, i32 1
  %20 = load ptr, ptr %19, align 8, !tbaa !51
  store ptr %20, ptr %9, align 8, !tbaa !65
  %21 = load ptr, ptr %4, align 8, !tbaa !4
  %22 = getelementptr inbounds nuw %struct.jpeg_decompress_struct, ptr %21, i32 0, i32 27
  %23 = load i32, ptr %22, align 8, !tbaa !69
  store i32 %23, ptr %10, align 4, !tbaa !61
  br label %24

24:                                               ; preds = %47, %3
  %25 = load i32, ptr %10, align 4, !tbaa !61
  %26 = icmp ugt i32 %25, 0
  br i1 %26, label %27, label %50

27:                                               ; preds = %24
  %28 = load ptr, ptr %8, align 8, !tbaa !65
  %29 = getelementptr inbounds i8, ptr %28, i64 2
  %30 = load i8, ptr %29, align 1, !tbaa !37
  %31 = load ptr, ptr %9, align 8, !tbaa !65
  %32 = getelementptr inbounds i8, ptr %31, i64 0
  store i8 %30, ptr %32, align 1, !tbaa !37
  %33 = load ptr, ptr %8, align 8, !tbaa !65
  %34 = getelementptr inbounds i8, ptr %33, i64 1
  %35 = load i8, ptr %34, align 1, !tbaa !37
  %36 = load ptr, ptr %9, align 8, !tbaa !65
  %37 = getelementptr inbounds i8, ptr %36, i64 1
  store i8 %35, ptr %37, align 1, !tbaa !37
  %38 = load ptr, ptr %8, align 8, !tbaa !65
  %39 = getelementptr inbounds i8, ptr %38, i64 0
  %40 = load i8, ptr %39, align 1, !tbaa !37
  %41 = load ptr, ptr %9, align 8, !tbaa !65
  %42 = getelementptr inbounds i8, ptr %41, i64 2
  store i8 %40, ptr %42, align 1, !tbaa !37
  %43 = load ptr, ptr %8, align 8, !tbaa !65
  %44 = getelementptr inbounds i8, ptr %43, i64 3
  store ptr %44, ptr %8, align 8, !tbaa !65
  %45 = load ptr, ptr %9, align 8, !tbaa !65
  %46 = getelementptr inbounds i8, ptr %45, i64 3
  store ptr %46, ptr %9, align 8, !tbaa !65
  br label %47

47:                                               ; preds = %27
  %48 = load i32, ptr %10, align 4, !tbaa !61
  %49 = add i32 %48, -1
  store i32 %49, ptr %10, align 4, !tbaa !61
  br label %24, !llvm.loop !73

50:                                               ; preds = %24
  %51 = load ptr, ptr %7, align 8, !tbaa !42
  %52 = getelementptr inbounds nuw %struct.tga_dest_struct, ptr %51, i32 0, i32 1
  %53 = load ptr, ptr %52, align 8, !tbaa !51
  %54 = load ptr, ptr %7, align 8, !tbaa !42
  %55 = getelementptr inbounds nuw %struct.tga_dest_struct, ptr %54, i32 0, i32 2
  %56 = load i32, ptr %55, align 8, !tbaa !50
  %57 = zext i32 %56 to i64
  %58 = load ptr, ptr %7, align 8, !tbaa !42
  %59 = getelementptr inbounds nuw %struct.tga_dest_struct, ptr %58, i32 0, i32 0
  %60 = getelementptr inbounds nuw %struct.djpeg_dest_struct, ptr %59, i32 0, i32 4
  %61 = load ptr, ptr %60, align 8, !tbaa !62
  %62 = call i64 @fwrite(ptr noundef %53, i64 noundef 1, i64 noundef %57, ptr noundef %61)
  call void @llvm.lifetime.end.p0(i64 4, ptr %10) #6
  call void @llvm.lifetime.end.p0(i64 8, ptr %9) #6
  call void @llvm.lifetime.end.p0(i64 8, ptr %8) #6
  call void @llvm.lifetime.end.p0(i64 8, ptr %7) #6
  ret void
}