; Function Attrs: nofree nounwind uwtable
define internal void @put_pixel_rows(ptr noundef readonly captures(none) %0, ptr noundef readonly captures(none) %1, i32 %2) #4 {
  %4 = getelementptr inbounds nuw i8, ptr %1, i64 72
  %5 = load ptr, ptr %4, align 8, !tbaa !48
  %6 = getelementptr inbounds nuw i8, ptr %0, i64 136
  %7 = load i32, ptr %6, align 8, !tbaa !53
  %.not18 = icmp eq i32 %7, 0
  br i1 %.not18, label %._crit_edge, label %.lr.ph.preheader

.lr.ph.preheader:                                 ; preds = %3
  %8 = getelementptr inbounds nuw i8, ptr %1, i64 40
  %9 = load ptr, ptr %8, align 8, !tbaa !50
  %10 = load ptr, ptr %9, align 8, !tbaa !61
  br label %.lr.ph

.lr.ph:                                           ; preds = %.lr.ph.preheader, %.lr.ph
  %.021 = phi i32 [ %20, %.lr.ph ], [ %7, %.lr.ph.preheader ]
  %.01620 = phi ptr [ %19, %.lr.ph ], [ %5, %.lr.ph.preheader ]
  %.01719 = phi ptr [ %18, %.lr.ph ], [ %10, %.lr.ph.preheader ]
  %11 = getelementptr inbounds nuw i8, ptr %.01719, i64 2
  %12 = load i8, ptr %11, align 1, !tbaa !35
  store i8 %12, ptr %.01620, align 1, !tbaa !35
  %13 = getelementptr inbounds nuw i8, ptr %.01719, i64 1
  %14 = load i8, ptr %13, align 1, !tbaa !35
  %15 = getelementptr inbounds nuw i8, ptr %.01620, i64 1
  store i8 %14, ptr %15, align 1, !tbaa !35
  %16 = load i8, ptr %.01719, align 1, !tbaa !35
  %17 = getelementptr inbounds nuw i8, ptr %.01620, i64 2
  store i8 %16, ptr %17, align 1, !tbaa !35
  %18 = getelementptr inbounds nuw i8, ptr %.01719, i64 3
  %19 = getelementptr inbounds nuw i8, ptr %.01620, i64 3
  %20 = add i32 %.021, -1
  %.not = icmp eq i32 %20, 0
  br i1 %.not, label %._crit_edge.loopexit, label %.lr.ph, !llvm.loop !66

._crit_edge.loopexit:                             ; preds = %.lr.ph
  %.pre = load ptr, ptr %4, align 8, !tbaa !48
  br label %._crit_edge

._crit_edge:                                      ; preds = %._crit_edge.loopexit, %3
  %21 = phi ptr [ %.pre, %._crit_edge.loopexit ], [ %5, %3 ]
  %22 = getelementptr inbounds nuw i8, ptr %1, i64 80
  %23 = load i32, ptr %22, align 8, !tbaa !47
  %24 = zext i32 %23 to i64
  %25 = getelementptr inbounds nuw i8, ptr %1, i64 32
  %26 = load ptr, ptr %25, align 8, !tbaa !59
  %27 = tail call i64 @fwrite(ptr noundef %21, i64 noundef 1, i64 noundef %24, ptr noundef %26)
  ret void
}